target datalayout = "e-m:e-p270:32:32-p271:32:32-p272:64:64-i64:64-i128:128-f80:128-n8:16:32:64-S128"
target triple = "x86_64-pc-linux-gnu"

@proto_lbmc = internal global i32 0, align 4
@.str.1 = private unnamed_addr constant [14 x i8] c"LBMC Protocol\00", align 1
@lbmc_stream_tap_handle = internal global i32 -1, align 4
@lbmc_reassemble_fragments = internal global i8 0, align 1
@lbmc_use_heuristic_subdissectors = internal global i8 1, align 1
@lbmc_heuristic_subdissector_list = internal global ptr null, align 8
@lbmc_dissect_lbmpdm = internal global i8 0, align 1
@lbmc_uim_tap_handle = internal global i32 -1, align 4
@.str.1712 = private unnamed_addr constant [16 x i8] c"29West Protocol\00", align 1
@.str.1713 = private unnamed_addr constant [7 x i8] c"29West\00", align 1
@.str.1714 = private unnamed_addr constant [7 x i8] c"29west\00", align 1
@tnw_protocol_handle = internal global i32 -1, align 4
@.str.1715 = private unnamed_addr constant [5 x i8] c"LBMC\00", align 1
@.str.1716 = private unnamed_addr constant [5 x i8] c"lbmc\00", align 1
@.str.1717 = private unnamed_addr constant [16 x i8] c"lbm_msg_payload\00", align 1
@.str.1718 = private unnamed_addr constant [31 x i8] c"LBMC UMQ command response data\00", align 1
@.str.1719 = private unnamed_addr constant [28 x i8] c"use_heuristic_subdissectors\00", align 1
@.str.1720 = private unnamed_addr constant [29 x i8] c"Use heuristic sub-dissectors\00", align 1
@.str.1721 = private unnamed_addr constant [68 x i8] c"Use a registered heuristic sub-dissector to decode the data payload\00", align 1
@.str.1722 = private unnamed_addr constant [21 x i8] c"reassemble_fragments\00", align 1
@.str.1723 = private unnamed_addr constant [27 x i8] c"Reassemble fragmented data\00", align 1
@.str.1724 = private unnamed_addr constant [34 x i8] c"Reassemble data message fragments\00", align 1
@.str.1725 = private unnamed_addr constant [15 x i8] c"dissect_lbmpdm\00", align 1
@.str.1726 = private unnamed_addr constant [23 x i8] c"Dissect LBMPDM payload\00", align 1
@.str.1727 = private unnamed_addr constant [94 x i8] c"Recognize and dissect payloads containing LBMPDM messages (requires reassembly to be enabled)\00", align 1
@lbmc_message_table = internal global ptr null, align 8
@.str.1728 = private unnamed_addr constant [8 x i8] c"lbm_uim\00", align 1
@.str.1729 = private unnamed_addr constant [10 x i8] c"UIM Flows\00", align 1
@.str.1730 = private unnamed_addr constant [11 x i8] c"lbm_stream\00", align 1
@instance_stream_table = internal global ptr null, align 8
@domain_stream_table = internal global ptr null, align 8

; Function Attrs: null_pointer_is_valid sspstrong uwtable
define internal void @lbm_stream_init() #0 {
  %1 = call ptr @wmem_epan_scope()
  %2 = call ptr @wmem_file_scope()
  %3 = call noalias ptr @wmem_tree_new_autoreset(ptr noundef %1, ptr noundef %2)
  store ptr %3, ptr @instance_stream_table, align 8
  %4 = call ptr @wmem_epan_scope()
  %5 = call ptr @wmem_file_scope()
  %6 = call noalias ptr @wmem_tree_new_autoreset(ptr noundef %4, ptr noundef %5)
  store ptr %6, ptr @domain_stream_table, align 8
  ret void
}

; Function Attrs: null_pointer_is_valid sspstrong uwtable
define hidden void @proto_register_lbmc() #0 {
  %1 = alloca ptr, align 8
  %2 = alloca ptr, align 8
  call void @llvm.lifetime.start.p0(i64 8, ptr %1) #16
  store ptr null, ptr %1, align 8
  call void @llvm.lifetime.start.p0(i64 8, ptr %2) #16
  %3 = call i32 @proto_register_protocol(ptr noundef @.str.1712, ptr noundef @.str.1713, ptr noundef @.str.1714)
  store i32 %3, ptr @tnw_protocol_handle, align 4
  %4 = call i32 @proto_register_protocol(ptr noundef @.str.1, ptr noundef @.str.1715, ptr noundef @.str.1716)
  store i32 %4, ptr @proto_lbmc, align 4
  %5 = load i32, ptr @proto_lbmc, align 4
  call void @proto_register_field_array(i32 noundef %5, ptr noundef @proto_register_lbmc.hf, i32 noundef 1180)
  call void @proto_register_subtree_array(ptr noundef @proto_register_lbmc.ett, i32 noundef 256)
  %6 = load i32, ptr @proto_lbmc, align 4
  %7 = call ptr @expert_register_protocol(i32 noundef %6)
  store ptr %7, ptr %2, align 8
  %8 = load ptr, ptr %2, align 8
  call void @expert_register_field_array(ptr noundef %8, ptr noundef @proto_register_lbmc.ei, i32 noundef 8)
  %9 = load i32, ptr @proto_lbmc, align 4
  %10 = call ptr @register_heur_dissector_list_with_description(ptr noundef @.str.1717, ptr noundef @.str.1718, i32 noundef %9)
  store ptr %10, ptr @lbmc_heuristic_subdissector_list, align 8
  %11 = load i32, ptr @tnw_protocol_handle, align 4
  %12 = call ptr @prefs_register_protocol(i32 noundef %11, ptr noundef null)
  %13 = load i32, ptr @proto_lbmc, align 4
  %14 = call ptr @prefs_register_protocol_subtree(ptr noundef @.str.1713, i32 noundef %13, ptr noundef @proto_reg_handoff_lbmc)
  store ptr %14, ptr %1, align 8
  %15 = load ptr, ptr %1, align 8
  call void @prefs_register_bool_preference(ptr noundef %15, ptr noundef @.str.1719, ptr noundef @.str.1720, ptr noundef @.str.1721, ptr noundef @lbmc_use_heuristic_subdissectors)
  %16 = load ptr, ptr %1, align 8
  call void @prefs_register_bool_preference(ptr noundef %16, ptr noundef @.str.1722, ptr noundef @.str.1723, ptr noundef @.str.1724, ptr noundef @lbmc_reassemble_fragments)
  %17 = load ptr, ptr %1, align 8
  call void @prefs_register_bool_preference(ptr noundef %17, ptr noundef @.str.1725, ptr noundef @.str.1726, ptr noundef @.str.1727, ptr noundef @lbmc_dissect_lbmpdm)
  call void @lbm_stream_init()
  %18 = call ptr @wmem_epan_scope()
  %19 = call ptr @wmem_file_scope()
  %20 = call noalias ptr @wmem_tree_new_autoreset(ptr noundef %18, ptr noundef %19)
  store ptr %20, ptr @lbmc_message_table, align 8
  %21 = load i32, ptr @proto_lbmc, align 4
  call void @register_seq_analysis(ptr noundef @.str.1728, ptr noundef @.str.1729, i32 noundef %21, ptr noundef @.str.1728, i32 noundef 2, ptr noundef @lbm_uim_seq_analysis_packet)
  %22 = call i32 @register_tap(ptr noundef @.str.1728)
  store i32 %22, ptr @lbmc_uim_tap_handle, align 4
  %23 = call i32 @register_tap(ptr noundef @.str.1730)
  store i32 %23, ptr @lbmc_stream_tap_handle, align 4
  call void @llvm.lifetime.end.p0(i64 8, ptr %2) #16
  call void @llvm.lifetime.end.p0(i64 8, ptr %1) #16
  ret void
}