; Function Attrs: null_pointer_is_valid sspstrong uwtable
define hidden void @proto_register_lbmc() local_unnamed_addr #0 {
  %1 = tail call i32 @proto_register_protocol(ptr noundef nonnull @.str.1712, ptr noundef nonnull @.str.1713, ptr noundef nonnull @.str.1714)
  store i32 %1, ptr @tnw_protocol_handle, align 4
  %2 = tail call i32 @proto_register_protocol(ptr noundef nonnull @.str.1, ptr noundef nonnull @.str.1715, ptr noundef nonnull @.str.1716)
  store i32 %2, ptr @proto_lbmc, align 4
  tail call void @proto_register_field_array(i32 noundef %2, ptr noundef nonnull @proto_register_lbmc.hf, i32 noundef 1180)
  tail call void @proto_register_subtree_array(ptr noundef nonnull @proto_register_lbmc.ett, i32 noundef 256)
  %3 = load i32, ptr @proto_lbmc, align 4
  %4 = tail call ptr @expert_register_protocol(i32 noundef %3)
  tail call void @expert_register_field_array(ptr noundef %4, ptr noundef nonnull @proto_register_lbmc.ei, i32 noundef 8)
  %5 = load i32, ptr @proto_lbmc, align 4
  %6 = tail call ptr @register_heur_dissector_list_with_description(ptr noundef nonnull @.str.1717, ptr noundef nonnull @.str.1718, i32 noundef %5)
  store ptr %6, ptr @lbmc_heuristic_subdissector_list, align 8
  %7 = load i32, ptr @tnw_protocol_handle, align 4
  %8 = tail call ptr @prefs_register_protocol(i32 noundef %7, ptr noundef null)
  %9 = load i32, ptr @proto_lbmc, align 4
  %10 = tail call ptr @prefs_register_protocol_subtree(ptr noundef nonnull @.str.1713, i32 noundef %9, ptr noundef nonnull @proto_reg_handoff_lbmc)
  tail call void @prefs_register_bool_preference(ptr noundef %10, ptr noundef nonnull @.str.1719, ptr noundef nonnull @.str.1720, ptr noundef nonnull @.str.1721, ptr noundef nonnull @lbmc_use_heuristic_subdissectors)
  tail call void @prefs_register_bool_preference(ptr noundef %10, ptr noundef nonnull @.str.1722, ptr noundef nonnull @.str.1723, ptr noundef nonnull @.str.1724, ptr noundef nonnull @lbmc_reassemble_fragments)
  tail call void @prefs_register_bool_preference(ptr noundef %10, ptr noundef nonnull @.str.1725, ptr noundef nonnull @.str.1726, ptr noundef nonnull @.str.1727, ptr noundef nonnull @lbmc_dissect_lbmpdm)
  %11 = tail call ptr @wmem_epan_scope()
  %12 = tail call ptr @wmem_file_scope()
  %13 = tail call noalias ptr @wmem_tree_new_autoreset(ptr noundef %11, ptr noundef %12)
  store ptr %13, ptr @instance_stream_table, align 8
  %14 = tail call ptr @wmem_epan_scope()
  %15 = tail call ptr @wmem_file_scope()
  %16 = tail call noalias ptr @wmem_tree_new_autoreset(ptr noundef %14, ptr noundef %15)
  store ptr %16, ptr @domain_stream_table, align 8
  %17 = tail call ptr @wmem_epan_scope()
  %18 = tail call ptr @wmem_file_scope()
  %19 = tail call noalias ptr @wmem_tree_new_autoreset(ptr noundef %17, ptr noundef %18)
  store ptr %19, ptr @lbmc_message_table, align 8
  %20 = load i32, ptr @proto_lbmc, align 4
  tail call void @register_seq_analysis(ptr noundef nonnull @.str.1728, ptr noundef nonnull @.str.1729, i32 noundef %20, ptr noundef nonnull @.str.1728, i32 noundef 2, ptr noundef nonnull @lbm_uim_seq_analysis_packet)
  %21 = tail call i32 @register_tap(ptr noundef nonnull @.str.1728)
  store i32 %21, ptr @lbmc_uim_tap_handle, align 4
  %22 = tail call i32 @register_tap(ptr noundef nonnull @.str.1730)
  store i32 %22, ptr @lbmc_stream_tap_handle, align 4
  ret void
}